; Function Attrs: mustprogress nofree norecurse nosync nounwind willreturn memory(read, inaccessiblemem: none) uwtable
define internal range(i32 253, 457) i32 @ecx_bits(ptr noundef readonly captures(none) %0) #1 {
  %2 = getelementptr inbounds nuw i8, ptr %0, i64 8
  %3 = load ptr, ptr %2, align 8, !tbaa !12
  %4 = load i32, ptr %3, align 8, !tbaa !25
  switch i32 %4, label %6 [
    i32 1034, label %7
    i32 1087, label %7
    i32 1035, label %5
  ]

5:                                                ; preds = %1
  br label %7

6:                                                ; preds = %1
  br label %7

7:                                                ; preds = %1, %1, %6, %5
  %.0 = phi i32 [ 448, %5 ], [ 456, %6 ], [ 253, %1 ], [ 253, %1 ]
  ret i32 %.0
}